; Function Attrs: nounwind uwtable
define noundef i32 @dt_control_configure(ptr noundef readnone captures(none) %0, ptr noundef readonly captures(none) %1, ptr noundef readnone captures(none) %2) local_unnamed_addr #0 {
  %4 = load ptr, ptr getelementptr inbounds nuw (i8, ptr @darktable, i64 80), align 8, !tbaa !6
  %5 = getelementptr inbounds nuw i8, ptr %1, i64 28
  %6 = load i32, ptr %5, align 4, !tbaa !120
  %7 = getelementptr inbounds nuw i8, ptr %1, i64 32
  %8 = load i32, ptr %7, align 8, !tbaa !123
  tail call void @dt_view_manager_configure(ptr noundef %4, i32 noundef %6, i32 noundef %8) #13
  ret i32 1
}